ccopy_reg
_reconstructor
p0
(cnetworkx.classes.digraph
DiGraph
p1
c__builtin__
object
p2
Ntp3
Rp4
(dp5
S'adjlist_inner_dict_factory'
p6
c__builtin__
dict
p7
sS'node_dict_factory'
p8
g7
sS'edge_attr_dict_factory'
p9
g7
sS'_node'
p10
(dp11
S'interlocutor'
p12
(dp13
sS'inference engine'
p14
(dp15
sS'syntax'
p16
(dp17
sS'human'
p18
(dp19
sS'linguistics'
p20
(dp21
sS'knowledge'
p22
(dp23
sS'writing'
p24
(dp25
sS'moving image'
p26
(dp27
sS'charge'
p28
(dp29
sS'program'
p30
(dp31
sS'computer science'
p32
(dp33
sS'data structure'
p34
(dp35
sS'individual sport'
p36
(dp37
sS'data base'
p38
(dp39
sS'human intelligence'
p40
(dp41
sS'type of sport'
p42
(dp43
sS'legal person'
p44
(dp45
sS'expert system'
p46
(dp47
sS'philology'
p48
(dp49
sS'metadata'
p50
(dp51
sS'auxiliary science of history'
p52
(dp53
sS'intelligence'
p54
(dp55
sS'idea'
p56
(dp57
sS'computer'
p58
(dp59
sS'video'
p60
(dp61
sS'strategic game'
p62
(dp63
sS'subject'
p64
(dp65
sS'polytree'
p66
(dp67
sS'Disadvantaged'
p68
(dp69
sS'scientific terminology'
p70
(dp71
sS'binary tree'
p72
(dp73
sS'programming language'
p74
(dp75
sS'C'
p76
(dp77
sS'tree'
p78
(dp79
sS'host'
p80
(dp81
sS'thematic relation'
p82
(dp83
sS'interaction'
p84
(dp85
sS'logic'
p86
(dp87
sS'server computer'
p88
(dp89
sS'software'
p90
(dp91
sS'electronic machine'
p92
(dp93
sS'image'
p94
(dp95
sS'arborescence'
p96
(dp97
sS'mathematical logic'
p98
(dp99
sS'problem solving'
p100
(dp101
sS'computer program'
p102
(dp103
sS'quality'
p104
(dp105
sS'mainframe computer'
p106
(dp107
sS'juridical person'
p108
(dp109
sS'male human'
p110
(dp111
sS'communication source'
p112
(dp113
sS'artificial intelligence'
p114
(dp115
sS'company'
p116
(dp117
sS'specialty'
p118
(dp119
sS'tree data structure'
p120
(dp121
sS'agent'
p122
(dp123
sS'institution'
p124
(dp125
sS'chess theory'
p126
(dp127
sS'software component'
p128
(dp129
sS'sequential game'
p130
(dp131
sS'procedure'
p132
(dp133
sS'generalization'
p134
(dp135
sS'depiction'
p136
(dp137
sS'knowledge base'
p138
(dp139
sS'goal'
p140
(dp141
sS'humanities'
p142
(dp143
sS'corporation'
p144
(dp145
sS'machine'
p146
(dp147
sS'criterion'
p148
(dp149
sS'chess'
p150
(dp151
sS'symbol'
p152
(dp153
sS'C++'
p154
(dp155
sS'academic discipline'
p156
(dp157
sS'data'
p158
(dp159
sS'class'
p160
(dp161
sS'structure'
p162
(dp163
sS'man'
p164
(dp165
sS'algorithm'
p166
(dp167
sS'database'
p168
(dp169
sS'robot'
p170
(dp171
sS'thought'
p172
(dp173
sS'person'
p174
(dp175
sS'organization'
p176
(dp177
sS'organism'
p178
(dp179
sS'fact'
p180
(dp181
sS'adult'
p182
(dp183
ssS'graph'
p184
(dp185
sS'_pred'
p186
(dp187
g12
(dp188
S'person'
p189
(dp190
ssg14
(dp191
g30
(dp192
ssg16
(dp193
g48
(dp194
ssg18
(dp195
g189
(dp196
ssg20
(dp197
g48
(dp198
ssg22
(dp199
sg24
(dp200
g112
(dp201
ssg26
(dp202
S'image'
p203
(dp204
ssg28
(dp205
g152
(dp206
ssg30
(dp207
S'software'
p208
(dp209
ssg32
(dp210
sg34
(dp211
g32
(dp212
ssg36
(dp213
g42
(dp214
ssg38
(dp215
g168
(dp216
ssg40
(dp217
g54
(dp218
ssg42
(dp219
g160
(dp220
ssg44
(dp221
g122
(dp222
ssg46
(dp223
S'artificial intelligence'
p224
(dp225
sS'computer program'
p226
(dp227
ssg48
(dp228
g142
(dp229
ssg50
(dp230
g158
(dp231
ssg52
(dp232
g142
(dp233
ssg54
(dp234
sg56
(dp235
S'thought'
p236
(dp237
ssg58
(dp238
g92
(dp239
ssg60
(dp240
g26
(dp241
ssg62
(dp242
g84
(dp243
ssg64
(dp244
g50
(dp245
ssg66
(dp246
g78
(dp247
ssg68
(dp248
g18
(dp249
ssg70
(dp250
g24
(dp251
ssg72
(dp252
g120
(dp253
sg96
(dp254
ssg74
(dp255
g58
(dp256
ssg76
(dp257
g74
(dp258
ssg78
(dp259
g28
(dp260
sg52
(dp261
ssg80
(dp262
g189
(dp263
ssg82
(dp264
g16
(dp265
ssg84
(dp266
sg86
(dp267
g156
(dp268
ssg88
(dp269
g58
(dp270
ssg90
(dp271
g58
(dp272
ssg92
(dp273
g146
(dp274
ssg94
(dp275
g136
(dp276
ssg96
(dp277
g66
(dp278
ssg98
(dp279
g86
(dp280
ssg100
(dp281
g70
(dp282
ssg102
(dp283
g208
(dp284
ssg104
(dp285
g126
(dp286
ssg106
(dp287
g88
(dp288
ssg108
(dp289
g44
(dp290
ssg110
(dp291
g18
(dp292
ssg112
(dp293
g12
(dp294
ssg114
(dp295
g20
(dp296
sg32
(dp297
sS'algorithm'
p298
(dp299
ssg116
(dp300
g176
(dp301
ssg118
(dp302
g22
(dp303
ssg120
(dp304
g34
(dp305
ssg122
(dp306
g82
(dp307
ssg124
(dp308
g176
(dp309
ssg126
(dp310
g150
(dp311
ssg128
(dp312
g226
(dp313
ssg130
(dp314
g62
(dp315
ssg132
(dp316
g30
(dp317
sg226
(dp318
ssg134
(dp319
g236
(dp320
ssg136
(dp321
g156
(dp322
ssg138
(dp323
g46
(dp324
sg226
(dp325
ssg140
(dp326
g148
(dp327
ssg142
(dp328
g22
(dp329
ssg144
(dp330
g108
(dp331
sg116
(dp332
ssg146
(dp333
sg148
(dp334
g104
(dp335
ssg150
(dp336
g36
(dp337
sg130
(dp338
ssg152
(dp339
g203
(dp340
sg134
(dp341
ssg154
(dp342
g74
(dp343
ssg156
(dp344
g118
(dp345
ssg158
(dp346
g38
(dp347
ssg160
(dp348
g128
(dp349
sS'knowledge base'
p350
(dp351
sg208
(dp352
ssg162
(dp353
g98
(dp354
ssg164
(dp355
g182
(dp356
sg110
(dp357
sg124
(dp358
ssg166
(dp359
g32
(dp360
sg132
(dp361
ssg168
(dp362
g80
(dp363
ssg170
(dp364
g146
(dp365
ssg172
(dp366
g70
(dp367
sg56
(dp368
ssg174
(dp369
g122
(dp370
sg64
(dp371
ssg176
(dp372
sg178
(dp373
g162
(dp374
ssg180
(dp375
g158
(dp376
ssg182
(dp377
g178
(dp378
sssS'_succ'
p379
(dp380
g12
(dp381
g112
g294
ssg14
(dp382
sg16
(dp383
g82
g265
ssg18
(dp384
g68
g249
sg110
g292
ssg20
(dp385
g114
g296
ssg22
(dp386
g118
g303
sg142
g329
ssg24
(dp387
g70
g251
ssg26
(dp388
g60
g241
ssg28
(dp389
g78
g260
ssg30
(dp390
g14
g192
sg132
g317
ssg32
(dp391
g34
g212
sS'algorithm'
p392
g360
sS'artificial intelligence'
p393
g297
ssg34
(dp394
g120
g305
ssg36
(dp395
g150
g337
ssg38
(dp396
g158
g347
ssg40
(dp397
sg42
(dp398
g36
g214
ssg44
(dp399
g108
g290
ssg46
(dp400
g138
g324
ssg48
(dp401
g20
g198
sg16
g194
ssg50
(dp402
g64
g245
ssg52
(dp403
g78
g261
ssg54
(dp404
g40
g218
ssg56
(dp405
g172
g368
ssg58
(dp406
g88
g270
sg74
g256
sg90
g272
ssg60
(dp407
sg62
(dp408
g130
g315
ssg64
(dp409
S'person'
p410
g371
ssg66
(dp411
g96
g278
ssg68
(dp412
sg70
(dp413
S'thought'
p414
g367
sg100
g282
ssg72
(dp415
sg74
(dp416
g76
g258
sg154
g343
ssg76
(dp417
sg78
(dp418
g66
g247
ssg80
(dp419
g168
g363
ssg82
(dp420
g122
g307
ssg84
(dp421
g62
g243
ssg86
(dp422
g98
g280
ssg88
(dp423
g106
g288
ssg90
(dp424
g30
g209
sg160
g352
sg102
g284
ssg92
(dp425
S'computer'
p426
g239
ssg94
(dp427
g26
g204
sg152
g340
ssg96
(dp428
g72
g254
ssg98
(dp429
g162
g354
ssg100
(dp430
sg102
(dp431
g128
g313
sg132
g318
sS'expert system'
p432
g227
sS'knowledge base'
p433
g325
ssg104
(dp434
g148
g335
ssg106
(dp435
sg108
(dp436
g144
g331
ssg110
(dp437
g164
g357
ssg112
(dp438
g24
g201
ssg114
(dp439
S'expert system'
p440
g225
ssg116
(dp441
g144
g332
ssg118
(dp442
g156
g345
ssg120
(dp443
g72
g253
ssg122
(dp444
g174
g370
sg44
g222
ssg124
(dp445
g164
g358
ssg126
(dp446
g104
g286
ssg128
(dp447
g160
g349
ssg130
(dp448
S'chess'
p449
g338
ssg132
(dp450
g166
g361
ssg134
(dp451
S'symbol'
p452
g341
ssg136
(dp453
g94
g276
ssg138
(dp454
S'class'
p455
g351
ssg140
(dp456
sg142
(dp457
g48
g229
sg52
g233
ssg144
(dp458
sg146
(dp459
g170
g365
sg92
g274
ssg148
(dp460
g140
g327
ssg150
(dp461
g126
g311
ssg152
(dp462
g28
g206
ssg154
(dp463
sg156
(dp464
g136
g322
sg86
g268
ssg158
(dp465
g180
g376
sg50
g231
ssg160
(dp466
g42
g220
ssg162
(dp467
g178
g374
ssg164
(dp468
sg166
(dp469
S'artificial intelligence'
p470
g299
ssg168
(dp471
g38
g216
ssg170
(dp472
sg172
(dp473
S'idea'
p474
g237
sg134
g320
ssg174
(dp475
g12
g190
sg80
g263
sg18
g196
ssg176
(dp476
g116
g301
sg124
g309
ssg178
(dp477
g182
g378
ssg180
(dp478
sg182
(dp479
g164
g356
sssS'_adj'
p480
g380
sS'adjlist_outer_dict_factory'
p481
g7
sb.